(dp0
S''
p1
(lp2
I4550
aI4551
asS'7.4'
p3
(lp4
I3930
asS'6.7'
p5
(lp6
I1880
aI2264
aI2552
aI3248
aI3744
aI4240
aI4364
aI4395
asS'6.6'
p7
(lp8
I1656
aI2200
asS'6.5'
p9
(lp10
I1528
aI3124
aI3310
aI3496
aI4457
asS'6.4'
p11
(lp12
I1432
aI2168
aI3341
aI3465
aI3868
aI3992
aI4147
asS'6.3'
p13
(lp14
I1592
aI2104
aI2584
aI3000
aI3093
aI3713
aI4023
aI4116
aI4426
asS'6.2'
p15
(lp16
I1976
aI2904
aI3806
aI4488
asS'6.1'
p17
(lp18
I1816
aI2072
aI2136
aI2712
aI3837
aI4054
asS'6.0'
p19
(lp20
I1784
aI2296
aI2456
aI2520
aI3589
aI4178
asS'7.9'
p21
(lp22
I3961
asS'6.9'
p23
(lp24
I1464
aI3620
aI4209
aI4271
asS'6.8'
p25
(lp26
I2232
aI3372
aI4333
asS'5.0'
p27
(lp28
I112
aI196
aI700
aI728
aI980
aI1120
aI1204
aI1372
aI1720
aI2776
asS'5.1'
p29
(lp30
I0
aI476
aI532
aI588
aI644
aI1092
aI1232
aI1288
aI2936
asS'4.7'
p31
(lp32
I56
aI812
asS'4.6'
p33
(lp34
I84
aI168
aI616
aI1316
asS'5.4'
p35
(lp36
I140
aI280
aI448
aI560
aI868
aI2488
asS'5.5'
p37
(lp38
I924
aI1008
aI1496
aI2360
aI2392
aI2648
aI2680
asS'4.3'
p39
(lp40
I364
asS'5.7'
p41
(lp42
I420
aI504
aI1560
aI2328
aI2840
aI2872
aI2968
aI3403
asS'5.8'
p43
(lp44
I392
aI1944
aI2424
aI2744
aI3031
aI3434
aI4302
asS'5.9'
p45
(lp46
I1752
aI2040
aI4519
asS'4.9'
p47
(lp48
I28
aI252
aI952
aI1036
aI1624
aI3186
asS'4.8'
p49
(lp50
I308
aI336
aI672
aI840
aI1260
asS'4.5'
p51
(lp52
I1148
asS'4.4'
p53
(lp54
I224
aI1064
aI1176
asS'5.2'
p55
(lp56
I756
aI784
aI896
aI1688
asS'5.3'
p57
(lp58
I1344
asS'7.2'
p59
(lp60
I3279
aI3775
aI3899
asS'5.6'
p61
(lp62
I1848
aI1912
aI2008
aI2616
aI2808
aI3651
asS'7.3'
p63
(lp64
I3217
asS'7.0'
p65
(lp66
I1400
asS'7.1'
p67
(lp68
I3062
asS'7.6'
p69
(lp70
I3155
asS'7.7'
p71
(lp72
I3527
aI3558
aI3682
aI4085
as.